target datalayout = "e-m:e-p270:32:32-p271:32:32-p272:64:64-i64:64-i128:128-f80:128-n8:16:32:64-S128"
target triple = "x86_64-pc-linux-gnu"

%struct.expert_field = type { i32, i32 }

@hf_lisp_tcp_message_eid_prefix_length = internal global i32 0, align 4
@hf_lisp_tcp_message_eid_prefix_afi = internal global i32 0, align 4
@hf_lisp_tcp_message_eid_ipv4 = internal global i32 0, align 4
@hf_lisp_tcp_message_eid_ipv6 = internal global i32 0, align 4
@hf_lisp_tcp_message_eid_mac = internal global i32 0, align 4
@hf_lisp_tcp_message_eid_dn = internal global i32 0, align 4
@ett_lisp_tcp_lcaf = internal global i32 0, align 4
@ett_lisp_tcp_eid_prefix = internal global i32 0, align 4
@ei_lisp_tcp_unexpected_afi = internal global %struct.expert_field zeroinitializer, align 4
@.str.123 = private unnamed_addr constant [46 x i8] c"Unexpected EID prefix AFI (%d), cannot decode\00", align 1
@.str.124 = private unnamed_addr constant [11 x i8] c" for %s/%d\00", align 1
@.str.125 = private unnamed_addr constant [18 x i8] c"EID Prefix: %s/%d\00", align 1
@.str.126 = private unnamed_addr constant [12 x i8] c"Address: %s\00", align 1

; Function Attrs: null_pointer_is_valid sspstrong uwtable
define internal i32 @dissect_lisp_tcp_message_eid_prefix(ptr noundef %0, ptr noundef %1, ptr noundef %2, i32 noundef %3, ptr noundef %4) #0 {
  %6 = alloca i32, align 4
  %7 = alloca ptr, align 8
  %8 = alloca ptr, align 8
  %9 = alloca ptr, align 8
  %10 = alloca i32, align 4
  %11 = alloca ptr, align 8
  %12 = alloca ptr, align 8
  %13 = alloca ptr, align 8
  %14 = alloca i32, align 4
  %15 = alloca i8, align 1
  %16 = alloca i16, align 2
  %17 = alloca i16, align 2
  %18 = alloca ptr, align 8
  %19 = alloca i32, align 4
  store ptr %0, ptr %7, align 8
  store ptr %1, ptr %8, align 8
  store ptr %2, ptr %9, align 8
  store i32 %3, ptr %10, align 4
  store ptr %4, ptr %11, align 8
  call void @llvm.lifetime.start.p0(i64 8, ptr %12) #3
  call void @llvm.lifetime.start.p0(i64 8, ptr %13) #3
  call void @llvm.lifetime.start.p0(i64 4, ptr %14) #3
  call void @llvm.lifetime.start.p0(i64 1, ptr %15) #3
  call void @llvm.lifetime.start.p0(i64 2, ptr %16) #3
  call void @llvm.lifetime.start.p0(i64 2, ptr %17) #3
  store i16 0, ptr %17, align 2
  call void @llvm.lifetime.start.p0(i64 8, ptr %18) #3
  %20 = load ptr, ptr %7, align 8
  %21 = load i32, ptr %10, align 4
  %22 = call zeroext i8 @tvb_get_uint8(ptr noundef %20, i32 noundef %21)
  store i8 %22, ptr %15, align 1
  %23 = load ptr, ptr %7, align 8
  %24 = load i32, ptr %10, align 4
  %25 = add i32 %24, 1
  %26 = call zeroext i16 @tvb_get_ntohs(ptr noundef %23, i32 noundef %25)
  store i16 %26, ptr %16, align 2
  %27 = load ptr, ptr %7, align 8
  %28 = load ptr, ptr %8, align 8
  %29 = load i32, ptr %10, align 4
  %30 = add i32 %29, 3
  %31 = load i16, ptr %16, align 2
  %32 = call ptr @get_addr_str(ptr noundef %27, ptr noundef %28, i32 noundef %30, i16 noundef zeroext %31, ptr noundef %17)
  store ptr %32, ptr %18, align 8
  %33 = load ptr, ptr %18, align 8
  %34 = icmp eq ptr %33, null
  br i1 %34, label %35, label %45

35:                                               ; preds = %5
  %36 = load ptr, ptr %8, align 8
  %37 = load ptr, ptr %9, align 8
  %38 = load i16, ptr %16, align 2
  %39 = zext i16 %38 to i32
  %40 = call ptr (ptr, ptr, ptr, ptr, ...) @expert_add_info_format(ptr noundef %36, ptr noundef %37, ptr noundef @ei_lisp_tcp_unexpected_afi, ptr noundef @.str.123, i32 noundef %39)
  %41 = load i32, ptr %10, align 4
  %42 = load i16, ptr %17, align 2
  %43 = zext i16 %42 to i32
  %44 = add i32 %41, %43
  store i32 %44, ptr %6, align 4
  store i32 1, ptr %19, align 4
  br label %134

45:                                               ; preds = %5
  %46 = load ptr, ptr %11, align 8
  %47 = load ptr, ptr %18, align 8
  %48 = load i8, ptr %15, align 1
  %49 = zext i8 %48 to i32
  call void (ptr, ptr, ...) @proto_item_append_text(ptr noundef %46, ptr noundef @.str.124, ptr noundef %47, i32 noundef %49)
  %50 = load ptr, ptr %9, align 8
  %51 = load ptr, ptr %7, align 8
  %52 = load i32, ptr %10, align 4
  %53 = load i16, ptr %17, align 2
  %54 = zext i16 %53 to i32
  %55 = add i32 3, %54
  %56 = load i32, ptr @ett_lisp_tcp_eid_prefix, align 4
  %57 = load ptr, ptr %18, align 8
  %58 = load i8, ptr %15, align 1
  %59 = zext i8 %58 to i32
  %60 = call ptr (ptr, ptr, i32, i32, i32, ptr, ptr, ...) @proto_tree_add_subtree_format(ptr noundef %50, ptr noundef %51, i32 noundef %52, i32 noundef %55, i32 noundef %56, ptr noundef null, ptr noundef @.str.125, ptr noundef %57, i32 noundef %59)
  store ptr %60, ptr %12, align 8
  %61 = load ptr, ptr %12, align 8
  %62 = load i32, ptr @hf_lisp_tcp_message_eid_prefix_length, align 4
  %63 = load ptr, ptr %7, align 8
  %64 = load i32, ptr %10, align 4
  %65 = call ptr @proto_tree_add_item(ptr noundef %61, i32 noundef %62, ptr noundef %63, i32 noundef %64, i32 noundef 1, i32 noundef 0)
  %66 = load i32, ptr %10, align 4
  %67 = add i32 %66, 1
  store i32 %67, ptr %10, align 4
  %68 = load ptr, ptr %12, align 8
  %69 = load i32, ptr @hf_lisp_tcp_message_eid_prefix_afi, align 4
  %70 = load ptr, ptr %7, align 8
  %71 = load i32, ptr %10, align 4
  %72 = call ptr @proto_tree_add_item(ptr noundef %68, i32 noundef %69, ptr noundef %70, i32 noundef %71, i32 noundef 2, i32 noundef 0)
  %73 = load i32, ptr %10, align 4
  %74 = add i32 %73, 2
  store i32 %74, ptr %10, align 4
  %75 = load i16, ptr %16, align 2
  %76 = zext i16 %75 to i32
  switch i32 %76, label %132 [
    i32 1, label %77
    i32 2, label %85
    i32 16387, label %93
    i32 6, label %111
    i32 16389, label %111
    i32 17, label %119
  ]

77:                                               ; preds = %45
  %78 = load ptr, ptr %12, align 8
  %79 = load i32, ptr @hf_lisp_tcp_message_eid_ipv4, align 4
  %80 = load ptr, ptr %7, align 8
  %81 = load i32, ptr %10, align 4
  %82 = call ptr @proto_tree_add_item(ptr noundef %78, i32 noundef %79, ptr noundef %80, i32 noundef %81, i32 noundef 4, i32 noundef 0)
  %83 = load i32, ptr %10, align 4
  %84 = add i32 %83, 4
  store i32 %84, ptr %10, align 4
  br label %132

85:                                               ; preds = %45
  %86 = load ptr, ptr %12, align 8
  %87 = load i32, ptr @hf_lisp_tcp_message_eid_ipv6, align 4
  %88 = load ptr, ptr %7, align 8
  %89 = load i32, ptr %10, align 4
  %90 = call ptr @proto_tree_add_item(ptr noundef %86, i32 noundef %87, ptr noundef %88, i32 noundef %89, i32 noundef 16, i32 noundef 0)
  %91 = load i32, ptr %10, align 4
  %92 = add i32 %91, 16
  store i32 %92, ptr %10, align 4
  br label %132

93:                                               ; preds = %45
  %94 = load ptr, ptr %12, align 8
  %95 = load ptr, ptr %7, align 8
  %96 = load i32, ptr %10, align 4
  %97 = load i16, ptr %17, align 2
  %98 = zext i16 %97 to i32
  %99 = load i32, ptr @ett_lisp_tcp_lcaf, align 4
  %100 = load ptr, ptr %18, align 8
  %101 = call ptr (ptr, ptr, i32, i32, i32, ptr, ptr, ...) @proto_tree_add_subtree_format(ptr noundef %94, ptr noundef %95, i32 noundef %96, i32 noundef %98, i32 noundef %99, ptr noundef null, ptr noundef @.str.126, ptr noundef %100)
  store ptr %101, ptr %13, align 8
  %102 = load ptr, ptr %7, align 8
  %103 = load ptr, ptr %8, align 8
  %104 = load ptr, ptr %13, align 8
  %105 = load i32, ptr %10, align 4
  %106 = call i32 @dissect_lcaf(ptr noundef %102, ptr noundef %103, ptr noundef %104, i32 noundef %105, ptr noundef null)
  %107 = load i16, ptr %17, align 2
  %108 = zext i16 %107 to i32
  %109 = load i32, ptr %10, align 4
  %110 = add i32 %109, %108
  store i32 %110, ptr %10, align 4
  br label %132

111:                                              ; preds = %45, %45
  %112 = load ptr, ptr %12, align 8
  %113 = load i32, ptr @hf_lisp_tcp_message_eid_mac, align 4
  %114 = load ptr, ptr %7, align 8
  %115 = load i32, ptr %10, align 4
  %116 = call ptr @proto_tree_add_item(ptr noundef %112, i32 noundef %113, ptr noundef %114, i32 noundef %115, i32 noundef 6, i32 noundef 0)
  %117 = load i32, ptr %10, align 4
  %118 = add i32 %117, 6
  store i32 %118, ptr %10, align 4
  br label %132

119:                                              ; preds = %45
  %120 = load ptr, ptr %7, align 8
  %121 = load i32, ptr %10, align 4
  %122 = call i32 @tvb_strsize(ptr noundef %120, i32 noundef %121)
  store i32 %122, ptr %14, align 4
  %123 = load ptr, ptr %12, align 8
  %124 = load i32, ptr @hf_lisp_tcp_message_eid_dn, align 4
  %125 = load ptr, ptr %7, align 8
  %126 = load i32, ptr %10, align 4
  %127 = load i32, ptr %14, align 4
  %128 = call ptr @proto_tree_add_item(ptr noundef %123, i32 noundef %124, ptr noundef %125, i32 noundef %126, i32 noundef %127, i32 noundef 0)
  %129 = load i32, ptr %14, align 4
  %130 = load i32, ptr %10, align 4
  %131 = add i32 %130, %129
  store i32 %131, ptr %10, align 4
  br label %132

132:                                              ; preds = %45, %119, %111, %93, %85, %77
  %133 = load i32, ptr %10, align 4
  store i32 %133, ptr %6, align 4
  store i32 1, ptr %19, align 4
  br label %134

134:                                              ; preds = %132, %35
  call void @llvm.lifetime.end.p0(i64 8, ptr %18) #3
  call void @llvm.lifetime.end.p0(i64 2, ptr %17) #3
  call void @llvm.lifetime.end.p0(i64 2, ptr %16) #3
  call void @llvm.lifetime.end.p0(i64 1, ptr %15) #3
  call void @llvm.lifetime.end.p0(i64 4, ptr %14) #3
  call void @llvm.lifetime.end.p0(i64 8, ptr %13) #3
  call void @llvm.lifetime.end.p0(i64 8, ptr %12) #3
  %135 = load i32, ptr %6, align 4
  ret i32 %135
}