; Function Attrs: null_pointer_is_valid sspstrong uwtable
define internal fastcc i32 @dissect_lisp_tcp_message_eid_prefix(ptr noundef %0, ptr noundef %1, ptr noundef %2, i32 noundef range(i32 8, 12) %3, ptr noundef %4) unnamed_addr #0 {
  %6 = alloca i16, align 2
  call void @llvm.lifetime.start.p0(i64 2, ptr nonnull %6) #3
  store i16 0, ptr %6, align 2
  %7 = tail call zeroext i8 @tvb_get_uint8(ptr noundef %0, i32 noundef %3)
  %8 = add nuw nsw i32 %3, 1
  %9 = tail call zeroext i16 @tvb_get_ntohs(ptr noundef %0, i32 noundef %8)
  %10 = add nuw nsw i32 %3, 3
  %11 = call ptr @get_addr_str(ptr noundef %0, ptr noundef %1, i32 noundef %10, i16 noundef zeroext %9, ptr noundef nonnull %6)
  %12 = icmp eq ptr %11, null
  br i1 %12, label %13, label %19

13:                                               ; preds = %5
  %14 = zext i16 %9 to i32
  %15 = call ptr (ptr, ptr, ptr, ptr, ...) @expert_add_info_format(ptr noundef %1, ptr noundef %2, ptr noundef nonnull @ei_lisp_tcp_unexpected_afi, ptr noundef nonnull @.str.123, i32 noundef %14)
  %16 = load i16, ptr %6, align 2
  %17 = zext i16 %16 to i32
  %18 = add nuw nsw i32 %3, %17
  br label %56

19:                                               ; preds = %5
  %20 = zext i8 %7 to i32
  call void (ptr, ptr, ...) @proto_item_append_text(ptr noundef %4, ptr noundef nonnull @.str.124, ptr noundef nonnull %11, i32 noundef %20)
  %21 = load i16, ptr %6, align 2
  %22 = zext i16 %21 to i32
  %23 = add nuw nsw i32 %22, 3
  %24 = load i32, ptr @ett_lisp_tcp_eid_prefix, align 4
  %25 = call ptr (ptr, ptr, i32, i32, i32, ptr, ptr, ...) @proto_tree_add_subtree_format(ptr noundef %2, ptr noundef %0, i32 noundef %3, i32 noundef %23, i32 noundef %24, ptr noundef null, ptr noundef nonnull @.str.125, ptr noundef nonnull %11, i32 noundef %20)
  %26 = load i32, ptr @hf_lisp_tcp_message_eid_prefix_length, align 4
  %27 = call ptr @proto_tree_add_item(ptr noundef %25, i32 noundef %26, ptr noundef %0, i32 noundef %3, i32 noundef 1, i32 noundef 0)
  %28 = load i32, ptr @hf_lisp_tcp_message_eid_prefix_afi, align 4
  %29 = call ptr @proto_tree_add_item(ptr noundef %25, i32 noundef %28, ptr noundef %0, i32 noundef %8, i32 noundef 2, i32 noundef 0)
  switch i16 %9, label %56 [
    i16 1, label %30
    i16 2, label %34
    i16 16387, label %38
    i16 6, label %47
    i16 16389, label %47
    i16 17, label %51
  ]

30:                                               ; preds = %19
  %31 = load i32, ptr @hf_lisp_tcp_message_eid_ipv4, align 4
  %32 = call ptr @proto_tree_add_item(ptr noundef %25, i32 noundef %31, ptr noundef %0, i32 noundef %10, i32 noundef 4, i32 noundef 0)
  %33 = add nuw nsw i32 %3, 7
  br label %56

34:                                               ; preds = %19
  %35 = load i32, ptr @hf_lisp_tcp_message_eid_ipv6, align 4
  %36 = call ptr @proto_tree_add_item(ptr noundef %25, i32 noundef %35, ptr noundef %0, i32 noundef %10, i32 noundef 16, i32 noundef 0)
  %37 = add nuw nsw i32 %3, 19
  br label %56

38:                                               ; preds = %19
  %39 = load i16, ptr %6, align 2
  %40 = zext i16 %39 to i32
  %41 = load i32, ptr @ett_lisp_tcp_lcaf, align 4
  %42 = call ptr (ptr, ptr, i32, i32, i32, ptr, ptr, ...) @proto_tree_add_subtree_format(ptr noundef %25, ptr noundef %0, i32 noundef %10, i32 noundef %40, i32 noundef %41, ptr noundef null, ptr noundef nonnull @.str.126, ptr noundef nonnull %11)
  %43 = call i32 @dissect_lcaf(ptr noundef %0, ptr noundef %1, ptr noundef %42, i32 noundef %10, ptr noundef null)
  %44 = load i16, ptr %6, align 2
  %45 = zext i16 %44 to i32
  %46 = add nuw nsw i32 %10, %45
  br label %56

47:                                               ; preds = %19, %19
  %48 = load i32, ptr @hf_lisp_tcp_message_eid_mac, align 4
  %49 = call ptr @proto_tree_add_item(ptr noundef %25, i32 noundef %48, ptr noundef %0, i32 noundef %10, i32 noundef 6, i32 noundef 0)
  %50 = add nuw nsw i32 %3, 9
  br label %56

51:                                               ; preds = %19
  %52 = call i32 @tvb_strsize(ptr noundef %0, i32 noundef %10)
  %53 = load i32, ptr @hf_lisp_tcp_message_eid_dn, align 4
  %54 = call ptr @proto_tree_add_item(ptr noundef %25, i32 noundef %53, ptr noundef %0, i32 noundef %10, i32 noundef %52, i32 noundef 0)
  %55 = add i32 %52, %10
  br label %56

56:                                               ; preds = %19, %30, %34, %38, %47, %51, %13
  %.0 = phi i32 [ %18, %13 ], [ %10, %19 ], [ %55, %51 ], [ %50, %47 ], [ %46, %38 ], [ %37, %34 ], [ %33, %30 ]
  call void @llvm.lifetime.end.p0(i64 2, ptr nonnull %6) #3
  ret i32 %.0
}